; Function Attrs: mustprogress nounwind uwtable
define hidden noundef ptr @_ZN10SampleList5reuseEP12ObjectSample(ptr nocapture noundef nonnull align 8 dereferenceable(80) %0, ptr noundef returned %1) local_unnamed_addr #1 align 2 {
  %3 = getelementptr inbounds i8, ptr %0, i64 48
  %4 = load ptr, ptr %3, align 8
  %5 = icmp eq ptr %4, %1
  %.pre.i = load ptr, ptr %1, align 8
  br i1 %5, label %6, label %7

6:                                                ; preds = %2
  store ptr %.pre.i, ptr %3, align 8
  br label %7

7:                                                ; preds = %6, %2
  %8 = getelementptr inbounds i8, ptr %1, i64 8
  %9 = load ptr, ptr %8, align 8
  %10 = icmp eq ptr %9, null
  %.not.i.i = icmp eq ptr %.pre.i, null
  br i1 %10, label %11, label %14

11:                                               ; preds = %7
  %12 = getelementptr inbounds i8, ptr %0, i64 24
  %..i.i = select i1 %.not.i.i, ptr %12, ptr %.pre.i
  %13 = getelementptr inbounds i8, ptr %..i.i, i64 8
  store ptr null, ptr %13, align 8
  store ptr %.pre.i, ptr %12, align 8
  br label %_ZN10SampleList6unlinkEP12ObjectSample.exit

14:                                               ; preds = %7
  br i1 %.not.i.i, label %.split.i.i, label %.split18.i.i

.split.i.i:                                       ; preds = %14
  %15 = getelementptr inbounds i8, ptr %0, i64 32
  store ptr %9, ptr %15, align 8
  store ptr null, ptr %9, align 8
  br label %_ZN10SampleList6unlinkEP12ObjectSample.exit

.split18.i.i:                                     ; preds = %14
  %16 = getelementptr inbounds i8, ptr %.pre.i, i64 8
  store ptr %9, ptr %16, align 8
  store ptr %.pre.i, ptr %9, align 8
  br label %_ZN10SampleList6unlinkEP12ObjectSample.exit

_ZN10SampleList6unlinkEP12ObjectSample.exit:      ; preds = %11, %.split.i.i, %.split18.i.i
  %17 = getelementptr inbounds i8, ptr %0, i64 40
  %18 = load i64, ptr %17, align 8
  %19 = add i64 %18, -1
  store i64 %19, ptr %17, align 8
  tail call void @_ZN12ObjectSample5resetEv(ptr noundef nonnull align 8 dereferenceable(117) %1) #8
  %20 = getelementptr inbounds i8, ptr %0, i64 24
  store ptr null, ptr %8, align 8
  %21 = load ptr, ptr %20, align 8
  %.not.i.i4 = icmp eq ptr %21, null
  br i1 %.not.i.i4, label %25, label %22

22:                                               ; preds = %_ZN10SampleList6unlinkEP12ObjectSample.exit
  %23 = getelementptr inbounds i8, ptr %21, i64 8
  store ptr %1, ptr %23, align 8
  %24 = load ptr, ptr %20, align 8
  br label %_ZN10SampleList4linkEP12ObjectSample.exit

25:                                               ; preds = %_ZN10SampleList6unlinkEP12ObjectSample.exit
  %26 = getelementptr inbounds i8, ptr %0, i64 32
  store ptr %1, ptr %26, align 8
  br label %_ZN10SampleList4linkEP12ObjectSample.exit

_ZN10SampleList4linkEP12ObjectSample.exit:        ; preds = %22, %25
  %storemerge.i.i = phi ptr [ %24, %22 ], [ null, %25 ]
  store ptr %storemerge.i.i, ptr %1, align 8
  store ptr %1, ptr %20, align 8
  %27 = load i64, ptr %17, align 8
  %28 = add i64 %27, 1
  store i64 %28, ptr %17, align 8
  ret ptr %1
}